target datalayout = "e-m:e-p270:32:32-p271:32:32-p272:64:64-i64:64-i128:128-f80:128-n8:16:32:64-S128"
target triple = "x86_64-pc-linux-gnu"

%"class.std::basic_ios" = type { %"class.std::ios_base", ptr, i8, i8, ptr, ptr, ptr, ptr }
%"class.std::ios_base" = type { ptr, i64, i64, i32, i32, i32, ptr, %"struct.std::ios_base::_Words", [8 x %"struct.std::ios_base::_Words"], i32, ptr, %"class.std::locale" }
%"struct.std::ios_base::_Words" = type { ptr, i64 }
%"class.std::locale" = type { ptr }
%"class.std::basic_ostream" = type { ptr, %"class.std::basic_ios" }
%class.z3_replayer = type { ptr }

@_ZSt4cerr = external global %"class.std::basic_ostream", align 8
@_ZTI12z3_exception = external constant ptr
@.str.2 = private unnamed_addr constant [15 x i8] c"Error at line \00", align 1
@.str.3 = private unnamed_addr constant [3 x i8] c": \00", align 1
@_ZSt4cout = external global %"class.std::basic_ostream", align 8
@.str.4 = private unnamed_addr constant [21 x i8] c"time:               \00", align 1
@.str.5 = private unnamed_addr constant [2 x i8] c"\0A\00", align 1

; Function Attrs: mustprogress uwtable
define available_externally noundef nonnull align 8 dereferenceable(8) ptr @_ZNSolsEd(ptr noundef nonnull align 8 dereferenceable(8) %0, double noundef %1) #4 align 2 {
  %3 = alloca ptr, align 8
  %4 = alloca double, align 8
  store ptr %0, ptr %3, align 8, !tbaa !23
  store double %1, ptr %4, align 8, !tbaa !28
  %5 = load ptr, ptr %3, align 8
  %6 = load double, ptr %4, align 8, !tbaa !28
  %7 = call noundef nonnull align 8 dereferenceable(8) ptr @_ZNSo9_M_insertIdEERSoT_(ptr noundef nonnull align 8 dereferenceable(8) %5, double noundef %6)
  ret ptr %7
}

; Function Attrs: mustprogress uwtable
define available_externally noundef nonnull align 8 dereferenceable(8) ptr @_ZNSolsEPFRSoS_E(ptr noundef nonnull align 8 dereferenceable(8) %0, ptr noundef %1) #4 align 2 {
  %3 = alloca ptr, align 8
  %4 = alloca ptr, align 8
  store ptr %0, ptr %3, align 8, !tbaa !23
  store ptr %1, ptr %4, align 8, !tbaa !27
  %5 = load ptr, ptr %3, align 8
  %6 = load ptr, ptr %4, align 8, !tbaa !27
  %7 = call noundef nonnull align 8 dereferenceable(8) ptr %6(ptr noundef nonnull align 8 dereferenceable(8) %5)
  ret ptr %7
}

; Function Attrs: mustprogress uwtable
define available_externally noundef nonnull align 8 dereferenceable(8) ptr @_ZNSolsEj(ptr noundef nonnull align 8 dereferenceable(8) %0, i32 noundef %1) #4 align 2 {
  %3 = alloca ptr, align 8
  %4 = alloca i32, align 4
  store ptr %0, ptr %3, align 8, !tbaa !23
  store i32 %1, ptr %4, align 4, !tbaa !25
  %5 = load ptr, ptr %3, align 8
  %6 = load i32, ptr %4, align 4, !tbaa !25
  %7 = zext i32 %6 to i64
  %8 = call noundef nonnull align 8 dereferenceable(8) ptr @_ZNSo9_M_insertImEERSoT_(ptr noundef nonnull align 8 dereferenceable(8) %5, i64 noundef %7)
  ret ptr %8
}

; Function Attrs: mustprogress uwtable
define internal void @_ZL5solvePKcRSi(ptr noundef %0, ptr noundef nonnull align 8 dereferenceable(16) %1) #4 personality ptr @__gxx_personality_v0 {
  %3 = alloca ptr, align 8
  %4 = alloca ptr, align 8
  %5 = alloca i64, align 8
  %6 = alloca %class.z3_replayer, align 8
  %7 = alloca ptr, align 8
  %8 = alloca i32, align 4
  %9 = alloca ptr, align 8
  %10 = alloca i64, align 8
  store ptr %0, ptr %3, align 8, !tbaa !4
  store ptr %1, ptr %4, align 8, !tbaa !11
  call void @llvm.lifetime.start.p0(i64 8, ptr %5) #3
  %11 = call i64 @clock() #3
  store i64 %11, ptr %5, align 8, !tbaa !13
  call void @llvm.lifetime.start.p0(i64 8, ptr %6) #3
  %12 = load ptr, ptr %4, align 8, !tbaa !11
  call void @_ZN11z3_replayerC1ERSi(ptr noundef nonnull align 8 dereferenceable(8) %6, ptr noundef nonnull align 8 dereferenceable(16) %12)
  invoke void @_ZN11z3_replayer5parseEv(ptr noundef nonnull align 8 dereferenceable(8) %6)
          to label %13 unwind label %14

13:                                               ; preds = %2
  br label %43

14:                                               ; preds = %2
  %15 = landingpad { ptr, i32 }
          cleanup
          catch ptr @_ZTI12z3_exception
  %16 = extractvalue { ptr, i32 } %15, 0
  store ptr %16, ptr %7, align 8
  %17 = extractvalue { ptr, i32 } %15, 1
  store i32 %17, ptr %8, align 4
  br label %18

18:                                               ; preds = %14
  %19 = load i32, ptr %8, align 4
  %20 = call i32 @llvm.eh.typeid.for.p0(ptr @_ZTI12z3_exception) #3
  %21 = icmp eq i32 %19, %20
  br i1 %21, label %22, label %72

22:                                               ; preds = %18
  call void @llvm.lifetime.start.p0(i64 8, ptr %9) #3
  %23 = load ptr, ptr %7, align 8
  %24 = call ptr @__cxa_begin_catch(ptr %23) #3
  store ptr %24, ptr %9, align 8
  %25 = invoke noundef nonnull align 8 dereferenceable(8) ptr @_ZStlsISt11char_traitsIcEERSt13basic_ostreamIcT_ES5_PKc(ptr noundef nonnull align 8 dereferenceable(8) @_ZSt4cerr, ptr noundef @.str.2)
          to label %26 unwind label %58

26:                                               ; preds = %22
  %27 = invoke noundef i32 @_ZNK11z3_replayer8get_lineEv(ptr noundef nonnull align 8 dereferenceable(8) %6)
          to label %28 unwind label %58

28:                                               ; preds = %26
  %29 = invoke noundef nonnull align 8 dereferenceable(8) ptr @_ZNSolsEj(ptr noundef nonnull align 8 dereferenceable(8) %25, i32 noundef %27)
          to label %30 unwind label %58

30:                                               ; preds = %28
  %31 = invoke noundef nonnull align 8 dereferenceable(8) ptr @_ZStlsISt11char_traitsIcEERSt13basic_ostreamIcT_ES5_PKc(ptr noundef nonnull align 8 dereferenceable(8) %29, ptr noundef @.str.3)
          to label %32 unwind label %58

32:                                               ; preds = %30
  %33 = load ptr, ptr %9, align 8, !tbaa !15
  %34 = load ptr, ptr %33, align 8, !tbaa !9
  %35 = getelementptr inbounds ptr, ptr %34, i64 2
  %36 = load ptr, ptr %35, align 8
  %37 = call noundef ptr %36(ptr noundef nonnull align 8 dereferenceable(8) %33) #3
  %38 = invoke noundef nonnull align 8 dereferenceable(8) ptr @_ZStlsISt11char_traitsIcEERSt13basic_ostreamIcT_ES5_PKc(ptr noundef nonnull align 8 dereferenceable(8) %31, ptr noundef %37)
          to label %39 unwind label %58

39:                                               ; preds = %32
  %40 = invoke noundef nonnull align 8 dereferenceable(8) ptr @_ZNSolsEPFRSoS_E(ptr noundef nonnull align 8 dereferenceable(8) %38, ptr noundef @_ZSt4endlIcSt11char_traitsIcEERSt13basic_ostreamIT_T0_ES6_)
          to label %41 unwind label %58

41:                                               ; preds = %39
  invoke void @__cxa_end_catch()
          to label %42 unwind label %62

42:                                               ; preds = %41
  call void @llvm.lifetime.end.p0(i64 8, ptr %9) #3
  br label %43

43:                                               ; preds = %42, %13
  call void @llvm.lifetime.start.p0(i64 8, ptr %10) #3
  %44 = call i64 @clock() #3
  store i64 %44, ptr %10, align 8, !tbaa !13
  invoke void @_ZN6memory17display_max_usageERSo(ptr noundef nonnull align 8 dereferenceable(8) @_ZSt4cout)
          to label %45 unwind label %68

45:                                               ; preds = %43
  %46 = invoke noundef nonnull align 8 dereferenceable(8) ptr @_ZStlsISt11char_traitsIcEERSt13basic_ostreamIcT_ES5_PKc(ptr noundef nonnull align 8 dereferenceable(8) @_ZSt4cout, ptr noundef @.str.4)
          to label %47 unwind label %68

47:                                               ; preds = %45
  %48 = load i64, ptr %10, align 8, !tbaa !13
  %49 = sitofp i64 %48 to double
  %50 = load i64, ptr %5, align 8, !tbaa !13
  %51 = sitofp i64 %50 to double
  %52 = fsub double %49, %51
  %53 = fdiv double %52, 1.000000e+06
  %54 = invoke noundef nonnull align 8 dereferenceable(8) ptr @_ZNSolsEd(ptr noundef nonnull align 8 dereferenceable(8) %46, double noundef %53)
          to label %55 unwind label %68

55:                                               ; preds = %47
  %56 = invoke noundef nonnull align 8 dereferenceable(8) ptr @_ZStlsISt11char_traitsIcEERSt13basic_ostreamIcT_ES5_PKc(ptr noundef nonnull align 8 dereferenceable(8) %54, ptr noundef @.str.5)
          to label %57 unwind label %68

57:                                               ; preds = %55
  call void @llvm.lifetime.end.p0(i64 8, ptr %10) #3
  call void @_ZN11z3_replayerD1Ev(ptr noundef nonnull align 8 dereferenceable(8) %6) #3
  call void @llvm.lifetime.end.p0(i64 8, ptr %6) #3
  call void @llvm.lifetime.end.p0(i64 8, ptr %5) #3
  ret void

58:                                               ; preds = %39, %32, %30, %28, %26, %22
  %59 = landingpad { ptr, i32 }
          cleanup
  %60 = extractvalue { ptr, i32 } %59, 0
  store ptr %60, ptr %7, align 8
  %61 = extractvalue { ptr, i32 } %59, 1
  store i32 %61, ptr %8, align 4
  invoke void @__cxa_end_catch()
          to label %66 unwind label %78

62:                                               ; preds = %41
  %63 = landingpad { ptr, i32 }
          cleanup
  %64 = extractvalue { ptr, i32 } %63, 0
  store ptr %64, ptr %7, align 8
  %65 = extractvalue { ptr, i32 } %63, 1
  store i32 %65, ptr %8, align 4
  br label %67

66:                                               ; preds = %58
  br label %67

67:                                               ; preds = %66, %62
  call void @llvm.lifetime.end.p0(i64 8, ptr %9) #3
  br label %72

68:                                               ; preds = %55, %47, %45, %43
  %69 = landingpad { ptr, i32 }
          cleanup
  %70 = extractvalue { ptr, i32 } %69, 0
  store ptr %70, ptr %7, align 8
  %71 = extractvalue { ptr, i32 } %69, 1
  store i32 %71, ptr %8, align 4
  call void @llvm.lifetime.end.p0(i64 8, ptr %10) #3
  br label %72

72:                                               ; preds = %68, %67, %18
  call void @_ZN11z3_replayerD1Ev(ptr noundef nonnull align 8 dereferenceable(8) %6) #3
  call void @llvm.lifetime.end.p0(i64 8, ptr %6) #3
  call void @llvm.lifetime.end.p0(i64 8, ptr %5) #3
  br label %73

73:                                               ; preds = %72
  %74 = load ptr, ptr %7, align 8
  %75 = load i32, ptr %8, align 4
  %76 = insertvalue { ptr, i32 } poison, ptr %74, 0
  %77 = insertvalue { ptr, i32 } %76, i32 %75, 1
  resume { ptr, i32 } %77

78:                                               ; preds = %58
  %79 = landingpad { ptr, i32 }
          catch ptr null
  %80 = extractvalue { ptr, i32 } %79, 0
  call void @__clang_call_terminate(ptr %80) #13
  unreachable
}