; Function Attrs: mustprogress uwtable
define internal fastcc void @_ZL5solvePKcRSi(ptr noundef nonnull align 8 dereferenceable(16) %0) unnamed_addr #4 personality ptr @__gxx_personality_v0 {
  %2 = alloca %class.z3_replayer, align 8
  %3 = tail call i64 @clock() #14
  call void @llvm.lifetime.start.p0(i64 8, ptr nonnull %2) #14
  call void @_ZN11z3_replayerC1ERSi(ptr noundef nonnull align 8 dereferenceable(8) %2, ptr noundef nonnull align 8 dereferenceable(16) %0)
  invoke void @_ZN11z3_replayer5parseEv(ptr noundef nonnull align 8 dereferenceable(8) %2)
          to label %25 unwind label %4

4:                                                ; preds = %1
  %5 = landingpad { ptr, i32 }
          cleanup
          catch ptr @_ZTI12z3_exception
  %6 = extractvalue { ptr, i32 } %5, 1
  %7 = call i32 @llvm.eh.typeid.for.p0(ptr nonnull @_ZTI12z3_exception) #14
  %8 = icmp eq i32 %6, %7
  br i1 %8, label %9, label %41

9:                                                ; preds = %4
  %10 = extractvalue { ptr, i32 } %5, 0
  %11 = call ptr @__cxa_begin_catch(ptr %10) #14
  %12 = invoke noundef nonnull align 8 dereferenceable(8) ptr @_ZSt16__ostream_insertIcSt11char_traitsIcEERSt13basic_ostreamIT_T0_ES6_PKS3_l(ptr noundef nonnull align 8 dereferenceable(8) @_ZSt4cerr, ptr noundef nonnull @.str.2, i64 noundef 14)
          to label %_ZStlsISt11char_traitsIcEERSt13basic_ostreamIcT_ES5_PKc.exit unwind label %35

_ZStlsISt11char_traitsIcEERSt13basic_ostreamIcT_ES5_PKc.exit: ; preds = %9
  %13 = invoke noundef i32 @_ZNK11z3_replayer8get_lineEv(ptr noundef nonnull align 8 dereferenceable(8) %2)
          to label %14 unwind label %35

14:                                               ; preds = %_ZStlsISt11char_traitsIcEERSt13basic_ostreamIcT_ES5_PKc.exit
  %15 = zext i32 %13 to i64
  %16 = invoke noundef nonnull align 8 dereferenceable(8) ptr @_ZNSo9_M_insertImEERSoT_(ptr noundef nonnull align 8 dereferenceable(8) @_ZSt4cerr, i64 noundef %15)
          to label %_ZNSolsEj.exit unwind label %35

_ZNSolsEj.exit:                                   ; preds = %14
  %17 = invoke noundef nonnull align 8 dereferenceable(8) ptr @_ZSt16__ostream_insertIcSt11char_traitsIcEERSt13basic_ostreamIT_T0_ES6_PKS3_l(ptr noundef nonnull align 8 dereferenceable(8) %16, ptr noundef nonnull @.str.3, i64 noundef 2)
          to label %_ZStlsISt11char_traitsIcEERSt13basic_ostreamIcT_ES5_PKc.exit11 unwind label %35

_ZStlsISt11char_traitsIcEERSt13basic_ostreamIcT_ES5_PKc.exit11: ; preds = %_ZNSolsEj.exit
  %18 = load ptr, ptr %11, align 8, !tbaa !4
  %19 = getelementptr inbounds nuw i8, ptr %18, i64 16
  %20 = load ptr, ptr %19, align 8
  %21 = call noundef ptr %20(ptr noundef nonnull align 8 dereferenceable(8) %11) #14
  %22 = invoke noundef nonnull align 8 dereferenceable(8) ptr @_ZStlsISt11char_traitsIcEERSt13basic_ostreamIcT_ES5_PKc(ptr noundef nonnull align 8 dereferenceable(8) %16, ptr noundef %21)
          to label %23 unwind label %35

23:                                               ; preds = %_ZStlsISt11char_traitsIcEERSt13basic_ostreamIcT_ES5_PKc.exit11
  %24 = invoke noundef nonnull align 8 dereferenceable(8) ptr @_ZSt4endlIcSt11char_traitsIcEERSt13basic_ostreamIT_T0_ES6_(ptr noundef nonnull align 8 dereferenceable(8) %22)
          to label %_ZNSolsEPFRSoS_E.exit unwind label %35

_ZNSolsEPFRSoS_E.exit:                            ; preds = %23
  invoke void @__cxa_end_catch()
          to label %25 unwind label %37

25:                                               ; preds = %_ZNSolsEPFRSoS_E.exit, %1
  %26 = call i64 @clock() #14
  invoke void @_ZN6memory17display_max_usageERSo(ptr noundef nonnull align 8 dereferenceable(8) @_ZSt4cout)
          to label %27 unwind label %39

27:                                               ; preds = %25
  %28 = invoke noundef nonnull align 8 dereferenceable(8) ptr @_ZSt16__ostream_insertIcSt11char_traitsIcEERSt13basic_ostreamIT_T0_ES6_PKS3_l(ptr noundef nonnull align 8 dereferenceable(8) @_ZSt4cout, ptr noundef nonnull @.str.4, i64 noundef 20)
          to label %_ZStlsISt11char_traitsIcEERSt13basic_ostreamIcT_ES5_PKc.exit12 unwind label %39

_ZStlsISt11char_traitsIcEERSt13basic_ostreamIcT_ES5_PKc.exit12: ; preds = %27
  %29 = sitofp i64 %26 to double
  %30 = sitofp i64 %3 to double
  %31 = fsub double %29, %30
  %32 = fdiv double %31, 1.000000e+06
  %33 = invoke noundef nonnull align 8 dereferenceable(8) ptr @_ZNSo9_M_insertIdEERSoT_(ptr noundef nonnull align 8 dereferenceable(8) @_ZSt4cout, double noundef %32)
          to label %_ZNSolsEd.exit unwind label %39

_ZNSolsEd.exit:                                   ; preds = %_ZStlsISt11char_traitsIcEERSt13basic_ostreamIcT_ES5_PKc.exit12
  %34 = invoke noundef nonnull align 8 dereferenceable(8) ptr @_ZSt16__ostream_insertIcSt11char_traitsIcEERSt13basic_ostreamIT_T0_ES6_PKS3_l(ptr noundef nonnull align 8 dereferenceable(8) %33, ptr noundef nonnull @.str.5, i64 noundef 1)
          to label %_ZStlsISt11char_traitsIcEERSt13basic_ostreamIcT_ES5_PKc.exit13 unwind label %39

_ZStlsISt11char_traitsIcEERSt13basic_ostreamIcT_ES5_PKc.exit13: ; preds = %_ZNSolsEd.exit
  call void @_ZN11z3_replayerD1Ev(ptr noundef nonnull align 8 dereferenceable(8) %2) #14
  call void @llvm.lifetime.end.p0(i64 8, ptr nonnull %2) #14
  ret void

35:                                               ; preds = %23, %_ZNSolsEj.exit, %14, %9, %_ZStlsISt11char_traitsIcEERSt13basic_ostreamIcT_ES5_PKc.exit11, %_ZStlsISt11char_traitsIcEERSt13basic_ostreamIcT_ES5_PKc.exit
  %36 = landingpad { ptr, i32 }
          cleanup
  invoke void @__cxa_end_catch()
          to label %41 unwind label %42

37:                                               ; preds = %_ZNSolsEPFRSoS_E.exit
  %38 = landingpad { ptr, i32 }
          cleanup
  br label %41

39:                                               ; preds = %_ZNSolsEd.exit, %_ZStlsISt11char_traitsIcEERSt13basic_ostreamIcT_ES5_PKc.exit12, %27, %25
  %40 = landingpad { ptr, i32 }
          cleanup
  br label %41

41:                                               ; preds = %37, %35, %39, %4
  %.merged = phi { ptr, i32 } [ %40, %39 ], [ %5, %4 ], [ %38, %37 ], [ %36, %35 ]
  call void @_ZN11z3_replayerD1Ev(ptr noundef nonnull align 8 dereferenceable(8) %2) #14
  call void @llvm.lifetime.end.p0(i64 8, ptr nonnull %2) #14
  resume { ptr, i32 } %.merged

42:                                               ; preds = %35
  %43 = landingpad { ptr, i32 }
          catch ptr null
  %44 = extractvalue { ptr, i32 } %43, 0
  call void @__clang_call_terminate(ptr %44) #16
  unreachable
}